; Function Attrs: mustprogress nofree norecurse nosync nounwind willreturn memory(read, inaccessiblemem: none) uwtable
define noundef zeroext i1 @_ZNK5Yosys3AST7AstNode12bits_only_01Ev(ptr nocapture noundef nonnull readonly align 8 dereferenceable(284) %0) local_unnamed_addr #11 align 2 {
  %2 = getelementptr inbounds i8, ptr %0, i64 112
  %3 = load ptr, ptr %2, align 8
  %4 = getelementptr inbounds i8, ptr %0, i64 120
  %5 = load ptr, ptr %4, align 8
  %.not10 = icmp eq ptr %3, %5
  br i1 %.not10, label %._crit_edge, label %.lr.ph

.lr.ph:                                           ; preds = %1, %.lr.ph
  %.sroa.07.011 = phi ptr [ %7, %.lr.ph ], [ %3, %1 ]
  %6 = load i8, ptr %.sroa.07.011, align 1
  %or.cond = icmp ult i8 %6, 2
  %7 = getelementptr inbounds i8, ptr %.sroa.07.011, i64 1
  %.not = icmp ne ptr %7, %5
  %or.cond15.not = select i1 %or.cond, i1 %.not, i1 false
  br i1 %or.cond15.not, label %.lr.ph, label %._crit_edge

._crit_edge:                                      ; preds = %.lr.ph, %1
  %.not.lcssa = phi i1 [ true, %1 ], [ %or.cond, %.lr.ph ]
  ret i1 %.not.lcssa
}